; Function Attrs: nounwind uwtable
define internal noundef zeroext i1 @Next_Enum(ptr noundef %0, ptr noundef readonly captures(none) %1) #3 {
  %3 = load ptr, ptr %1, align 8, !tbaa !9
  %4 = getelementptr inbounds nuw i8, ptr %1, i64 12
  %5 = load i8, ptr %4, align 4, !tbaa !14, !range !21, !noundef !22
  %6 = trunc nuw i8 %5 to i1
  %7 = getelementptr inbounds nuw i8, ptr %1, i64 8
  %8 = load i32, ptr %7, align 8, !tbaa !18
  %9 = tail call ptr @field_buffer(ptr noundef %0, i32 noundef 0) #10
  %.not = icmp eq ptr %3, null
  br i1 %.not, label %Compare.exit39, label %.preheader

.preheader:                                       ; preds = %2
  %.not2085 = icmp eq i32 %8, 0
  br i1 %.not2085, label %.thread46, label %.lr.ph

.thread46:                                        ; preds = %Compare.exit, %.preheader
  %10 = load ptr, ptr %1, align 8, !tbaa !9
  br label %58

.lr.ph:                                           ; preds = %.preheader, %Compare.exit
  %.01787 = phi i32 [ %11, %Compare.exit ], [ %8, %.preheader ]
  %.01886 = phi ptr [ %18, %Compare.exit ], [ %3, %.preheader ]
  %11 = add nsw i32 %.01787, -1
  %12 = load ptr, ptr %.01886, align 8, !tbaa !16
  br label %13

13:                                               ; preds = %13, %.lr.ph
  %.029.i = phi ptr [ %9, %.lr.ph ], [ %15, %13 ]
  %14 = load i8, ptr %.029.i, align 1, !tbaa !23
  %cond.i = icmp eq i8 %14, 32
  %15 = getelementptr inbounds nuw i8, ptr %.029.i, i64 1
  br i1 %cond.i, label %13, label %.critedge.i, !llvm.loop !24

.critedge.i:                                      ; preds = %13, %.critedge.i
  %.028.i = phi ptr [ %17, %.critedge.i ], [ %12, %13 ]
  %16 = load i8, ptr %.028.i, align 1, !tbaa !23
  %cond40.i = icmp eq i8 %16, 32
  %17 = getelementptr inbounds nuw i8, ptr %.028.i, i64 1
  br i1 %cond40.i, label %.critedge.i, label %.critedge2.i, !llvm.loop !26

.critedge2.i:                                     ; preds = %.critedge.i
  %18 = getelementptr inbounds nuw i8, ptr %.01886, i64 8
  %19 = icmp eq i8 %14, 0
  br i1 %19, label %20, label %22

20:                                               ; preds = %.critedge2.i
  %21 = icmp eq i8 %16, 0
  br i1 %21, label %select.unfold, label %Compare.exit

22:                                               ; preds = %.critedge2.i
  br i1 %6, label %.preheader.i, label %.preheader44.i

.preheader44.i:                                   ; preds = %22
  %23 = tail call ptr @__ctype_toupper_loc() #11
  %24 = load ptr, ptr %23, align 8, !tbaa !30
  br label %32

.preheader.i:                                     ; preds = %22, %28
  %.130.i = phi ptr [ %30, %28 ], [ %.029.i, %22 ]
  %.1.i = phi ptr [ %29, %28 ], [ %.028.i, %22 ]
  %25 = load i8, ptr %.1.i, align 1, !tbaa !23
  %26 = load i8, ptr %.130.i, align 1, !tbaa !23
  %27 = icmp eq i8 %25, %26
  br i1 %27, label %28, label %.loopexit42.i

28:                                               ; preds = %.preheader.i
  %29 = getelementptr inbounds nuw i8, ptr %.1.i, i64 1
  %30 = getelementptr inbounds nuw i8, ptr %.130.i, i64 1
  %31 = icmp eq i8 %25, 0
  br i1 %31, label %select.unfold, label %.preheader.i, !llvm.loop !28

32:                                               ; preds = %42, %.preheader44.i
  %.231.i = phi ptr [ %44, %42 ], [ %.029.i, %.preheader44.i ]
  %.2.i = phi ptr [ %43, %42 ], [ %.028.i, %.preheader44.i ]
  %33 = load i8, ptr %.2.i, align 1, !tbaa !23
  %34 = zext i8 %33 to i64
  %35 = getelementptr inbounds nuw i32, ptr %24, i64 %34
  %36 = load i32, ptr %35, align 4, !tbaa !13
  %37 = load i8, ptr %.231.i, align 1, !tbaa !23
  %38 = zext i8 %37 to i64
  %39 = getelementptr inbounds nuw i32, ptr %24, i64 %38
  %40 = load i32, ptr %39, align 4, !tbaa !13
  %41 = icmp eq i32 %36, %40
  br i1 %41, label %42, label %.loopexit42.i

42:                                               ; preds = %32
  %43 = getelementptr inbounds nuw i8, ptr %.2.i, i64 1
  %44 = getelementptr inbounds nuw i8, ptr %.231.i, i64 1
  %45 = icmp eq i8 %37, 0
  br i1 %45, label %select.unfold, label %32, !llvm.loop !32

.loopexit42.i:                                    ; preds = %32, %.preheader.i
  %46 = phi i8 [ %25, %.preheader.i ], [ %33, %32 ]
  %47 = phi i8 [ %26, %.preheader.i ], [ %37, %32 ]
  %.332.i = phi ptr [ %.130.i, %.preheader.i ], [ %.231.i, %32 ]
  br label %48

48:                                               ; preds = %50, %.loopexit42.i
  %49 = phi i8 [ %47, %.loopexit42.i ], [ %.pre.i, %50 ]
  %.4.i = phi ptr [ %.332.i, %.loopexit42.i ], [ %51, %50 ]
  switch i8 %49, label %Compare.exit [
    i8 32, label %50
    i8 0, label %52
  ]

50:                                               ; preds = %48
  %51 = getelementptr inbounds nuw i8, ptr %.4.i, i64 1
  %.pre.i = load i8, ptr %51, align 1, !tbaa !23
  br label %48, !llvm.loop !27

52:                                               ; preds = %48
  %53 = icmp eq i8 %46, 0
  br i1 %53, label %select.unfold, label %Compare.exit

Compare.exit:                                     ; preds = %48, %52, %20
  %.not20 = icmp eq i32 %11, 0
  br i1 %.not20, label %.thread46, label %.lr.ph, !llvm.loop !33

select.unfold:                                    ; preds = %52, %20, %42, %28
  %54 = icmp slt i32 %.01787, 2
  br i1 %54, label %55, label %.thread43

55:                                               ; preds = %select.unfold
  %56 = load ptr, ptr %1, align 8, !tbaa !9
  %57 = icmp eq i32 %.01787, 1
  br i1 %57, label %.thread43, label %58

58:                                               ; preds = %.thread46, %55
  %59 = phi ptr [ %10, %.thread46 ], [ %56, %55 ]
  br label %60

60:                                               ; preds = %60, %58
  %.029.i21 = phi ptr [ %9, %58 ], [ %62, %60 ]
  %61 = load i8, ptr %.029.i21, align 1, !tbaa !23
  %62 = getelementptr inbounds nuw i8, ptr %.029.i21, i64 1
  switch i8 %61, label %63 [
    i8 32, label %60
    i8 0, label %.thread43
  ]

63:                                               ; preds = %60
  br i1 %6, label %.preheader.i36, label %.preheader44.i28

.preheader44.i28:                                 ; preds = %63
  %64 = tail call ptr @__ctype_toupper_loc() #11
  %65 = load ptr, ptr %64, align 8, !tbaa !30
  br label %73

.preheader.i36:                                   ; preds = %63, %69
  %.130.i37 = phi ptr [ %71, %69 ], [ %.029.i21, %63 ]
  %.1.i38 = phi ptr [ %70, %69 ], [ @dummy, %63 ]
  %66 = load i8, ptr %.1.i38, align 1, !tbaa !23
  %67 = load i8, ptr %.130.i37, align 1, !tbaa !23
  %68 = icmp eq i8 %66, %67
  br i1 %68, label %69, label %.loopexit42.i31

69:                                               ; preds = %.preheader.i36
  %70 = getelementptr inbounds nuw i8, ptr %.1.i38, i64 1
  %71 = getelementptr inbounds nuw i8, ptr %.130.i37, i64 1
  %72 = icmp eq i8 %66, 0
  br i1 %72, label %.thread43, label %.preheader.i36, !llvm.loop !28

73:                                               ; preds = %83, %.preheader44.i28
  %.231.i29 = phi ptr [ %85, %83 ], [ %.029.i21, %.preheader44.i28 ]
  %.2.i30 = phi ptr [ %84, %83 ], [ @dummy, %.preheader44.i28 ]
  %74 = load i8, ptr %.2.i30, align 1, !tbaa !23
  %75 = zext i8 %74 to i64
  %76 = getelementptr inbounds nuw i32, ptr %65, i64 %75
  %77 = load i32, ptr %76, align 4, !tbaa !13
  %78 = load i8, ptr %.231.i29, align 1, !tbaa !23
  %79 = zext i8 %78 to i64
  %80 = getelementptr inbounds nuw i32, ptr %65, i64 %79
  %81 = load i32, ptr %80, align 4, !tbaa !13
  %82 = icmp eq i32 %77, %81
  br i1 %82, label %83, label %.loopexit42.i31

83:                                               ; preds = %73
  %84 = getelementptr inbounds nuw i8, ptr %.2.i30, i64 1
  %85 = getelementptr inbounds nuw i8, ptr %.231.i29, i64 1
  %86 = icmp eq i8 %78, 0
  br i1 %86, label %.thread43, label %73, !llvm.loop !32

.loopexit42.i31:                                  ; preds = %73, %.preheader.i36
  %87 = phi i8 [ %66, %.preheader.i36 ], [ %74, %73 ]
  %88 = phi i8 [ %67, %.preheader.i36 ], [ %78, %73 ]
  %.332.i32 = phi ptr [ %.130.i37, %.preheader.i36 ], [ %.231.i29, %73 ]
  br label %89

89:                                               ; preds = %91, %.loopexit42.i31
  %90 = phi i8 [ %88, %.loopexit42.i31 ], [ %.pre.i35, %91 ]
  %.4.i33 = phi ptr [ %.332.i32, %.loopexit42.i31 ], [ %92, %91 ]
  switch i8 %90, label %Compare.exit39 [
    i8 32, label %91
    i8 0, label %93
  ]

91:                                               ; preds = %89
  %92 = getelementptr inbounds nuw i8, ptr %.4.i33, i64 1
  %.pre.i35 = load i8, ptr %92, align 1, !tbaa !23
  br label %89, !llvm.loop !27

93:                                               ; preds = %89
  %94 = icmp eq i8 %87, 0
  br i1 %94, label %.thread43, label %Compare.exit39

.thread43:                                        ; preds = %60, %83, %69, %93, %select.unfold, %55
  %.245 = phi ptr [ %56, %55 ], [ %18, %select.unfold ], [ %59, %93 ], [ %59, %69 ], [ %59, %83 ], [ %59, %60 ]
  %95 = load ptr, ptr %.245, align 8, !tbaa !16
  %96 = tail call i32 @set_field_buffer(ptr noundef %0, i32 noundef 0, ptr noundef %95) #10
  br label %Compare.exit39

Compare.exit39:                                   ; preds = %89, %93, %2, %.thread43
  %.0 = phi i1 [ true, %.thread43 ], [ false, %2 ], [ false, %93 ], [ false, %89 ]
  ret i1 %.0
}